; Function Attrs: nounwind uwtable
define hidden noalias ptr @mi_calloc_aligned(i64 noundef %0, i64 noundef %1, i64 noundef %2) local_unnamed_addr #0 {
  %4 = tail call align 8 ptr @llvm.threadlocal.address.p0(ptr align 8 @_mi_heap_default)
  %5 = load ptr, ptr %4, align 8, !tbaa !17
  %.not.i.i = icmp eq i64 %0, 1
  br i1 %.not.i.i, label %10, label %6

6:                                                ; preds = %3
  %7 = tail call { i64, i1 } @llvm.umul.with.overflow.i64(i64 range(i64 2, 1) %0, i64 %1)
  %8 = extractvalue { i64, i1 } %7, 1
  %9 = extractvalue { i64, i1 } %7, 0
  br i1 %8, label %mi_heap_calloc_aligned.exit, label %10, !prof !16

10:                                               ; preds = %6, %3
  %storemerge.i.ph.i.i = phi i64 [ %1, %3 ], [ %9, %6 ]
  %11 = tail call range(i64 0, 65) i64 @llvm.ctpop.i64(i64 range(i64 1, 0) %2)
  %or.cond.not.i.i.i.i = icmp eq i64 %11, 1
  br i1 %or.cond.not.i.i.i.i, label %12, label %mi_heap_calloc_aligned.exit, !prof !3

12:                                               ; preds = %10
  %13 = icmp ult i64 %storemerge.i.ph.i.i, 1025
  %14 = icmp ule i64 %2, %storemerge.i.ph.i.i
  %15 = and i1 %13, %14
  br i1 %15, label %16, label %.thread.i.i.i.i, !prof !4

16:                                               ; preds = %12
  %17 = add nuw nsw i64 %storemerge.i.ph.i.i, 7
  %18 = lshr i64 %17, 3
  %19 = getelementptr inbounds nuw i8, ptr %5, i64 232
  %20 = getelementptr inbounds nuw [129 x ptr], ptr %19, i64 0, i64 %18
  %21 = load ptr, ptr %20, align 8, !tbaa !5
  %22 = getelementptr inbounds nuw i8, ptr %21, i64 8
  %23 = load ptr, ptr %22, align 8, !tbaa !10
  %.not.i.i.i.i = icmp eq ptr %23, null
  br i1 %.not.i.i.i.i, label %.thread.i.i.i.i, label %24, !prof !16

24:                                               ; preds = %16
  %25 = add i64 %2, -1
  %26 = ptrtoint ptr %23 to i64
  %27 = and i64 %25, %26
  %.not36.i.i.i.i = icmp eq i64 %27, 0
  br i1 %.not36.i.i.i.i, label %28, label %.thread.i.i.i.i, !prof !4

28:                                               ; preds = %24
  %29 = tail call ptr @_mi_page_malloc_zeroed(ptr noundef nonnull %5, ptr noundef nonnull %21, i64 noundef %storemerge.i.ph.i.i) #8
  br label %mi_heap_calloc_aligned.exit

.thread.i.i.i.i:                                  ; preds = %24, %16, %12
  %30 = tail call fastcc ptr @mi_heap_malloc_zero_aligned_at_generic(ptr noundef %5, i64 noundef %storemerge.i.ph.i.i, i64 noundef %2, i64 noundef 0, i1 noundef zeroext true) #9
  br label %mi_heap_calloc_aligned.exit

mi_heap_calloc_aligned.exit:                      ; preds = %6, %10, %28, %.thread.i.i.i.i
  %.0.i.i = phi ptr [ null, %6 ], [ %30, %.thread.i.i.i.i ], [ null, %10 ], [ %29, %28 ]
  ret ptr %.0.i.i
}